; Function Attrs: mustprogress uwtable
define void @_ZN3zmq6pair_tC2EPNS_5ctx_tEji(ptr noundef nonnull align 8 dereferenceable(1840) %0, ptr noundef %1, i32 noundef %2, i32 noundef %3) unnamed_addr #0 align 2 {
  tail call void @_ZN3zmq13socket_base_tC2EPNS_5ctx_tEjib(ptr noundef nonnull align 8 dereferenceable(1825) %0, ptr noundef %1, i32 noundef %2, i32 noundef %3, i1 noundef zeroext false)
  store ptr getelementptr inbounds nuw inrange(-16, 360) (i8, ptr @_ZTVN3zmq6pair_tE, i64 16), ptr %0, align 8, !tbaa !3
  %5 = getelementptr inbounds nuw i8, ptr %0, i64 1448
  store ptr getelementptr inbounds nuw inrange(-16, 16) (i8, ptr @_ZTVN3zmq6pair_tE, i64 392), ptr %5, align 8, !tbaa !3
  %6 = getelementptr inbounds nuw i8, ptr %0, i64 1464
  store ptr getelementptr inbounds nuw inrange(-16, 40) (i8, ptr @_ZTVN3zmq6pair_tE, i64 424), ptr %6, align 8, !tbaa !3
  %7 = getelementptr inbounds nuw i8, ptr %0, i64 1472
  store ptr getelementptr inbounds nuw inrange(-16, 48) (i8, ptr @_ZTVN3zmq6pair_tE, i64 480), ptr %7, align 8, !tbaa !3
  %8 = getelementptr inbounds nuw i8, ptr %0, i64 1832
  store ptr null, ptr %8, align 8, !tbaa !6
  %9 = getelementptr inbounds nuw i8, ptr %0, i64 332
  store i8 0, ptr %9, align 4, !tbaa !85
  ret void
}